target datalayout = "e-m:e-p270:32:32-p271:32:32-p272:64:64-i64:64-i128:128-f80:128-n8:16:32:64-S128"
target triple = "x86_64-pc-linux-gnu"

%"class.Ipopt::DenseSymMatrix" = type <{ %"class.Ipopt::SymMatrix", ptr, ptr, i8, [7 x i8] }>
%"class.Ipopt::SymMatrix" = type { %"class.Ipopt::Matrix.base", ptr }
%"class.Ipopt::Matrix.base" = type <{ %"class.Ipopt::TaggedObject", %"class.Ipopt::SmartPtr", i32, i8 }>
%"class.Ipopt::TaggedObject" = type { %"class.Ipopt::ReferencedObject.base", %"class.Ipopt::Subject", i32, i32 }
%"class.Ipopt::ReferencedObject.base" = type <{ ptr, i32 }>
%"class.Ipopt::Subject" = type { ptr, %"class.std::vector" }
%"class.std::vector" = type { %"struct.std::_Vector_base" }
%"struct.std::_Vector_base" = type { %"struct.std::_Vector_base<Ipopt::Observer *, std::allocator<Ipopt::Observer *>>::_Vector_impl" }
%"struct.std::_Vector_base<Ipopt::Observer *, std::allocator<Ipopt::Observer *>>::_Vector_impl" = type { %"struct.std::_Vector_base<Ipopt::Observer *, std::allocator<Ipopt::Observer *>>::_Vector_impl_data" }
%"struct.std::_Vector_base<Ipopt::Observer *, std::allocator<Ipopt::Observer *>>::_Vector_impl_data" = type { ptr, ptr, ptr }
%"class.Ipopt::SmartPtr" = type { ptr }
%"class.Ipopt::DenseVector" = type { %"class.Ipopt::Vector.base", ptr, ptr, ptr, i8, i8, double }
%"class.Ipopt::Vector.base" = type <{ %"class.Ipopt::TaggedObject", %"class.Ipopt::SmartPtr.10", %"class.Ipopt::CachedResults", i32, [4 x i8], double, i32, [4 x i8], double, i32, [4 x i8], double, i32, [4 x i8], double, i32, [4 x i8], double, i32, [4 x i8], double, i32, [4 x i8], double, i32, i8 }>
%"class.Ipopt::SmartPtr.10" = type { ptr }
%"class.Ipopt::CachedResults" = type { ptr, i32, ptr }
%"class.Ipopt::DenseGenMatrix" = type { %"class.Ipopt::Matrix.base", ptr, ptr, i8, i32, ptr }
%"class.Ipopt::MatrixSpace" = type { %"class.Ipopt::ReferencedObject.base", i32, i32, [4 x i8] }

; Function Attrs: mustprogress nounwind uwtable
define linkonce_odr noundef i32 @_ZNK5Ipopt11MatrixSpace5NRowsEv(ptr noundef nonnull align 8 dereferenceable(20) %0) #5 comdat align 2 {
  %2 = alloca ptr, align 8
  store ptr %0, ptr %2, align 8, !tbaa !165
  %3 = load ptr, ptr %2, align 8
  %4 = getelementptr inbounds nuw %"class.Ipopt::MatrixSpace", ptr %3, i32 0, i32 1
  %5 = load i32, ptr %4, align 4, !tbaa !175
  ret i32 %5
}

; Function Attrs: mustprogress nounwind uwtable
define linkonce_odr noundef i32 @_ZNK5Ipopt14SymMatrixSpace3DimEv(ptr noundef nonnull align 8 dereferenceable(20) %0) #5 comdat align 2 {
  %2 = alloca ptr, align 8
  store ptr %0, ptr %2, align 8, !tbaa !35
  %3 = load ptr, ptr %2, align 8
  %4 = call noundef i32 @_ZNK5Ipopt11MatrixSpace5NRowsEv(ptr noundef nonnull align 8 dereferenceable(20) %3)
  ret i32 %4
}

; Function Attrs: mustprogress nounwind uwtable
define linkonce_odr noundef ptr @_ZNK5Ipopt14DenseGenMatrix6ValuesEv(ptr noundef nonnull align 8 dereferenceable(104) %0) #5 comdat align 2 {
  %2 = alloca ptr, align 8
  store ptr %0, ptr %2, align 8, !tbaa !79
  %3 = load ptr, ptr %2, align 8
  %4 = getelementptr inbounds nuw %"class.Ipopt::DenseGenMatrix", ptr %3, i32 0, i32 2
  %5 = load ptr, ptr %4, align 8, !tbaa !81
  ret ptr %5
}

; Function Attrs: inlinehint mustprogress nounwind uwtable
define linkonce_odr noundef ptr @_ZNK5Ipopt11DenseVector6ValuesEv(ptr noundef nonnull align 8 dereferenceable(248) %0) #9 comdat align 2 {
  %2 = alloca ptr, align 8
  store ptr %0, ptr %2, align 8, !tbaa !43
  %3 = load ptr, ptr %2, align 8
  %4 = getelementptr inbounds nuw %"class.Ipopt::DenseVector", ptr %3, i32 0, i32 2
  %5 = load ptr, ptr %4, align 8, !tbaa !45
  ret ptr %5
}

; Function Attrs: inlinehint mustprogress uwtable
define linkonce_odr noundef i32 @_ZNK5Ipopt9SymMatrix3DimEv(ptr noundef nonnull align 8 dereferenceable(80) %0) #2 comdat align 2 {
  %2 = alloca ptr, align 8
  store ptr %0, ptr %2, align 8, !tbaa !33
  %3 = load ptr, ptr %2, align 8
  %4 = getelementptr inbounds nuw %"class.Ipopt::SymMatrix", ptr %3, i32 0, i32 1
  %5 = load ptr, ptr %4, align 8, !tbaa !36
  %6 = call noundef i32 @_ZNK5Ipopt14SymMatrixSpace3DimEv(ptr noundef nonnull align 8 dereferenceable(20) %5)
  ret i32 %6
}

; Function Attrs: mustprogress uwtable
define void @_ZN5Ipopt14DenseSymMatrix18SpecialAddForLMSR1ERKNS_11DenseVectorERKNS_14DenseGenMatrixE(ptr noundef nonnull align 8 dereferenceable(97) %0, ptr noundef nonnull align 8 dereferenceable(248) %1, ptr noundef nonnull align 8 dereferenceable(104) %2) #1 align 2 {
  %4 = alloca ptr, align 8
  %5 = alloca ptr, align 8
  %6 = alloca ptr, align 8
  %7 = alloca i32, align 4
  %8 = alloca ptr, align 8
  %9 = alloca i32, align 4
  %10 = alloca ptr, align 8
  %11 = alloca i32, align 4
  %12 = alloca i32, align 4
  %13 = alloca i32, align 4
  store ptr %0, ptr %4, align 8, !tbaa !3
  store ptr %1, ptr %5, align 8, !tbaa !43
  store ptr %2, ptr %6, align 8, !tbaa !79
  %14 = load ptr, ptr %4, align 8
  call void @llvm.lifetime.start.p0(i64 4, ptr %7) #17
  %15 = call noundef i32 @_ZNK5Ipopt9SymMatrix3DimEv(ptr noundef nonnull align 8 dereferenceable(80) %14)
  store i32 %15, ptr %7, align 4, !tbaa !57
  call void @llvm.lifetime.start.p0(i64 8, ptr %8) #17
  %16 = load ptr, ptr %5, align 8, !tbaa !43
  %17 = call noundef ptr @_ZNK5Ipopt11DenseVector6ValuesEv(ptr noundef nonnull align 8 dereferenceable(248) %16)
  store ptr %17, ptr %8, align 8, !tbaa !61
  call void @llvm.lifetime.start.p0(i64 4, ptr %9) #17
  store i32 0, ptr %9, align 4, !tbaa !57
  br label %18

18:                                               ; preds = %40, %3
  %19 = load i32, ptr %9, align 4, !tbaa !57
  %20 = load i32, ptr %7, align 4, !tbaa !57
  %21 = icmp slt i32 %19, %20
  br i1 %21, label %23, label %22

22:                                               ; preds = %18
  call void @llvm.lifetime.end.p0(i64 4, ptr %9) #17
  br label %43

23:                                               ; preds = %18
  %24 = load ptr, ptr %8, align 8, !tbaa !61
  %25 = load i32, ptr %9, align 4, !tbaa !57
  %26 = sext i32 %25 to i64
  %27 = getelementptr inbounds double, ptr %24, i64 %26
  %28 = load double, ptr %27, align 8, !tbaa !39
  %29 = getelementptr inbounds nuw %"class.Ipopt::DenseSymMatrix", ptr %14, i32 0, i32 2
  %30 = load ptr, ptr %29, align 8, !tbaa !31
  %31 = load i32, ptr %9, align 4, !tbaa !57
  %32 = load i32, ptr %9, align 4, !tbaa !57
  %33 = load i32, ptr %7, align 4, !tbaa !57
  %34 = mul nsw i32 %32, %33
  %35 = add nsw i32 %31, %34
  %36 = sext i32 %35 to i64
  %37 = getelementptr inbounds double, ptr %30, i64 %36
  %38 = load double, ptr %37, align 8, !tbaa !39
  %39 = fadd double %38, %28
  store double %39, ptr %37, align 8, !tbaa !39
  br label %40

40:                                               ; preds = %23
  %41 = load i32, ptr %9, align 4, !tbaa !57
  %42 = add nsw i32 %41, 1
  store i32 %42, ptr %9, align 4, !tbaa !57
  br label %18, !llvm.loop !86

43:                                               ; preds = %22
  call void @llvm.lifetime.start.p0(i64 8, ptr %10) #17
  %44 = load ptr, ptr %6, align 8, !tbaa !79
  %45 = call noundef ptr @_ZNK5Ipopt14DenseGenMatrix6ValuesEv(ptr noundef nonnull align 8 dereferenceable(104) %44)
  store ptr %45, ptr %10, align 8, !tbaa !61
  call void @llvm.lifetime.start.p0(i64 4, ptr %11) #17
  store i32 0, ptr %11, align 4, !tbaa !57
  br label %46

46:                                               ; preds = %84, %43
  %47 = load i32, ptr %11, align 4, !tbaa !57
  %48 = load i32, ptr %7, align 4, !tbaa !57
  %49 = icmp slt i32 %47, %48
  br i1 %49, label %51, label %50

50:                                               ; preds = %46
  store i32 5, ptr %12, align 4
  call void @llvm.lifetime.end.p0(i64 4, ptr %11) #17
  br label %87

51:                                               ; preds = %46
  call void @llvm.lifetime.start.p0(i64 4, ptr %13) #17
  %52 = load i32, ptr %11, align 4, !tbaa !57
  %53 = add nsw i32 %52, 1
  store i32 %53, ptr %13, align 4, !tbaa !57
  br label %54

54:                                               ; preds = %80, %51
  %55 = load i32, ptr %13, align 4, !tbaa !57
  %56 = load i32, ptr %7, align 4, !tbaa !57
  %57 = icmp slt i32 %55, %56
  br i1 %57, label %59, label %58

58:                                               ; preds = %54
  store i32 8, ptr %12, align 4
  call void @llvm.lifetime.end.p0(i64 4, ptr %13) #17
  br label %83

59:                                               ; preds = %54
  %60 = load ptr, ptr %10, align 8, !tbaa !61
  %61 = load i32, ptr %13, align 4, !tbaa !57
  %62 = load i32, ptr %11, align 4, !tbaa !57
  %63 = load i32, ptr %7, align 4, !tbaa !57
  %64 = mul nsw i32 %62, %63
  %65 = add nsw i32 %61, %64
  %66 = sext i32 %65 to i64
  %67 = getelementptr inbounds double, ptr %60, i64 %66
  %68 = load double, ptr %67, align 8, !tbaa !39
  %69 = getelementptr inbounds nuw %"class.Ipopt::DenseSymMatrix", ptr %14, i32 0, i32 2
  %70 = load ptr, ptr %69, align 8, !tbaa !31
  %71 = load i32, ptr %13, align 4, !tbaa !57
  %72 = load i32, ptr %11, align 4, !tbaa !57
  %73 = load i32, ptr %7, align 4, !tbaa !57
  %74 = mul nsw i32 %72, %73
  %75 = add nsw i32 %71, %74
  %76 = sext i32 %75 to i64
  %77 = getelementptr inbounds double, ptr %70, i64 %76
  %78 = load double, ptr %77, align 8, !tbaa !39
  %79 = fadd double %78, %68
  store double %79, ptr %77, align 8, !tbaa !39
  br label %80

80:                                               ; preds = %59
  %81 = load i32, ptr %13, align 4, !tbaa !57
  %82 = add nsw i32 %81, 1
  store i32 %82, ptr %13, align 4, !tbaa !57
  br label %54, !llvm.loop !87

83:                                               ; preds = %58
  br label %84

84:                                               ; preds = %83
  %85 = load i32, ptr %11, align 4, !tbaa !57
  %86 = add nsw i32 %85, 1
  store i32 %86, ptr %11, align 4, !tbaa !57
  br label %46, !llvm.loop !88

87:                                               ; preds = %50
  call void @_ZN5Ipopt12TaggedObject13ObjectChangedEv(ptr noundef nonnull align 8 dereferenceable(56) %14)
  call void @llvm.lifetime.end.p0(i64 8, ptr %10) #17
  call void @llvm.lifetime.end.p0(i64 8, ptr %8) #17
  call void @llvm.lifetime.end.p0(i64 4, ptr %7) #17
  ret void
}