; Function Attrs: mustprogress uwtable
define void @_ZN5Ipopt14DenseSymMatrix18SpecialAddForLMSR1ERKNS_11DenseVectorERKNS_14DenseGenMatrixE(ptr noundef nonnull align 8 dereferenceable(97) %0, ptr noundef nonnull readonly align 8 captures(none) dereferenceable(248) %1, ptr noundef nonnull readonly align 8 captures(none) dereferenceable(104) %2) local_unnamed_addr #1 align 2 {
  %4 = getelementptr inbounds nuw i8, ptr %0, i64 72
  %5 = load ptr, ptr %4, align 8, !tbaa !25
  %6 = getelementptr inbounds nuw i8, ptr %5, i64 12
  %7 = load i32, ptr %6, align 4, !tbaa !34
  %8 = getelementptr inbounds nuw i8, ptr %1, i64 216
  %9 = load ptr, ptr %8, align 8, !tbaa !37
  %10 = icmp sgt i32 %7, 0
  br i1 %10, label %.lr.ph, label %._crit_edge34

.lr.ph:                                           ; preds = %3
  %11 = getelementptr inbounds nuw i8, ptr %0, i64 88
  %12 = load ptr, ptr %11, align 8, !tbaa !35
  %13 = add nuw i32 %7, 1
  %wide.trip.count = zext nneg i32 %7 to i64
  br label %20

.lr.ph33:                                         ; preds = %20
  %14 = getelementptr inbounds nuw i8, ptr %2, i64 80
  %15 = load ptr, ptr %14, align 8, !tbaa !103
  %16 = getelementptr inbounds nuw i8, ptr %0, i64 88
  %17 = load ptr, ptr %16, align 8
  %18 = zext nneg i32 %7 to i64
  %19 = zext nneg i32 %7 to i64
  br label %29

20:                                               ; preds = %.lr.ph, %20
  %indvars.iv = phi i64 [ 0, %.lr.ph ], [ %indvars.iv.next, %20 ]
  %21 = getelementptr inbounds nuw double, ptr %9, i64 %indvars.iv
  %22 = load double, ptr %21, align 8, !tbaa !55
  %23 = trunc nuw nsw i64 %indvars.iv to i32
  %24 = mul i32 %13, %23
  %25 = sext i32 %24 to i64
  %26 = getelementptr inbounds double, ptr %12, i64 %25
  %27 = load double, ptr %26, align 8, !tbaa !55
  %28 = fadd double %22, %27
  store double %28, ptr %26, align 8, !tbaa !55
  %indvars.iv.next = add nuw nsw i64 %indvars.iv, 1
  %exitcond.not = icmp eq i64 %indvars.iv.next, %wide.trip.count
  br i1 %exitcond.not, label %.lr.ph33, label %20, !llvm.loop !108

.loopexit:                                        ; preds = %32, %29
  %indvars.iv.next37 = add nuw nsw i64 %indvars.iv36, 1
  %exitcond47.not = icmp eq i64 %indvars.iv.next44, %19
  br i1 %exitcond47.not, label %._crit_edge34, label %29, !llvm.loop !109

._crit_edge34:                                    ; preds = %.loopexit, %3
  tail call void @_ZN5Ipopt12TaggedObject13ObjectChangedEv(ptr noundef nonnull align 8 dereferenceable(56) %0)
  ret void

29:                                               ; preds = %.lr.ph33, %.loopexit
  %indvars.iv43 = phi i64 [ 0, %.lr.ph33 ], [ %indvars.iv.next44, %.loopexit ]
  %indvars.iv36 = phi i64 [ 1, %.lr.ph33 ], [ %indvars.iv.next37, %.loopexit ]
  %indvars.iv.next44 = add nuw nsw i64 %indvars.iv43, 1
  %30 = icmp samesign ult i64 %indvars.iv.next44, %18
  br i1 %30, label %.lr.ph30, label %.loopexit

.lr.ph30:                                         ; preds = %29
  %31 = mul nuw nsw i64 %indvars.iv43, %19
  br label %32

32:                                               ; preds = %.lr.ph30, %32
  %indvars.iv38 = phi i64 [ %indvars.iv36, %.lr.ph30 ], [ %indvars.iv.next39, %32 ]
  %33 = add nuw nsw i64 %indvars.iv38, %31
  %34 = getelementptr inbounds nuw double, ptr %15, i64 %33
  %35 = load double, ptr %34, align 8, !tbaa !55
  %36 = getelementptr inbounds nuw double, ptr %17, i64 %33
  %37 = load double, ptr %36, align 8, !tbaa !55
  %38 = fadd double %35, %37
  store double %38, ptr %36, align 8, !tbaa !55
  %indvars.iv.next39 = add nuw nsw i64 %indvars.iv38, 1
  %exitcond42.not = icmp eq i64 %indvars.iv.next39, %19
  br i1 %exitcond42.not, label %.loopexit, label %32, !llvm.loop !110
}